target datalayout = "e-m:e-p270:32:32-p271:32:32-p272:64:64-i64:64-i128:128-f80:128-n8:16:32:64-S128"
target triple = "x86_64-pc-linux-gnu"

%struct.ReplicationSlot = type { i8, i8, i32, i8, i8, i32, i32, %struct.ReplicationSlotPersistentData, %struct.LWLock, %struct.ConditionVariable, i32, i64, i64, i64, i64, i64 }
%struct.ReplicationSlotPersistentData = type { %struct.nameData, i32, i32, i32, i32, i64, i32, i64, i64, i8, %struct.nameData, i8, i8 }
%struct.nameData = type { [64 x i8] }
%struct.LWLock = type { i16, %struct.pg_atomic_uint32, %struct.proclist_head }
%struct.pg_atomic_uint32 = type { i32 }
%struct.proclist_head = type { i32, i32 }
%struct.ConditionVariable = type { i8, %struct.proclist_head }

@MyReplicationSlot = dso_local global ptr null, align 8
@.str.6 = private unnamed_addr constant [7 x i8] c"slot.c\00", align 1
@__func__.ReplicationSlotMarkDirty = private unnamed_addr constant [25 x i8] c"ReplicationSlotMarkDirty\00", align 1

; Function Attrs: inlinehint nounwind uwtable
define internal i32 @tas(ptr noundef %0) #7 {
  %2 = alloca ptr, align 8
  %3 = alloca i8, align 1
  store ptr %0, ptr %2, align 8
  call void @llvm.lifetime.start.p0(i64 1, ptr %3) #12
  store i8 1, ptr %3, align 1
  %4 = load i8, ptr %3, align 1
  %5 = load ptr, ptr %2, align 8
  %6 = call i8 asm sideeffect "\09lock\09\09\09\0A\09xchgb\09$0,$1\09\0A", "=q,=*m,0,*m,~{memory},~{cc},~{dirflag},~{fpsr},~{flags}"(ptr elementtype(i8) %5, i8 %4, ptr elementtype(i8) %5) #12, !srcloc !13
  store i8 %6, ptr %3, align 1
  %7 = load i8, ptr %3, align 1
  %8 = zext i8 %7 to i32
  call void @llvm.lifetime.end.p0(i64 1, ptr %3) #12
  ret i32 %8
}

; Function Attrs: nounwind uwtable
define dso_local void @ReplicationSlotMarkDirty() #0 {
  %1 = alloca ptr, align 8
  call void @llvm.lifetime.start.p0(i64 8, ptr %1) #12
  %2 = load ptr, ptr @MyReplicationSlot, align 8
  store ptr %2, ptr %1, align 8
  %3 = load ptr, ptr %1, align 8
  %4 = getelementptr inbounds nuw %struct.ReplicationSlot, ptr %3, i32 0, i32 0
  %5 = call i32 @tas(ptr noundef %4)
  %6 = icmp ne i32 %5, 0
  br i1 %6, label %7, label %11

7:                                                ; preds = %0
  %8 = load ptr, ptr %1, align 8
  %9 = getelementptr inbounds nuw %struct.ReplicationSlot, ptr %8, i32 0, i32 0
  %10 = call i32 @s_lock(ptr noundef %9, ptr noundef @.str.6, i32 noundef 1048, ptr noundef @__func__.ReplicationSlotMarkDirty)
  br label %12

11:                                               ; preds = %0
  br label %12

12:                                               ; preds = %11, %7
  %13 = load ptr, ptr @MyReplicationSlot, align 8
  %14 = getelementptr inbounds nuw %struct.ReplicationSlot, ptr %13, i32 0, i32 3
  store i8 1, ptr %14, align 8
  %15 = load ptr, ptr @MyReplicationSlot, align 8
  %16 = getelementptr inbounds nuw %struct.ReplicationSlot, ptr %15, i32 0, i32 4
  store i8 1, ptr %16, align 1
  br label %17

17:                                               ; preds = %12
  call void asm sideeffect "", "~{memory},~{dirflag},~{fpsr},~{flags}"() #12, !srcloc !27
  %18 = load ptr, ptr %1, align 8
  %19 = getelementptr inbounds nuw %struct.ReplicationSlot, ptr %18, i32 0, i32 0
  store i8 0, ptr %19, align 8
  br label %20

20:                                               ; preds = %17
  br label %21

21:                                               ; preds = %20
  call void @llvm.lifetime.end.p0(i64 8, ptr %1) #12
  ret void
}