; Function Attrs: nounwind uwtable
define dso_local void @ReplicationSlotMarkDirty() local_unnamed_addr #0 {
  %1 = load ptr, ptr @MyReplicationSlot, align 8
  %2 = tail call i8 asm sideeffect "\09lock\09\09\09\0A\09xchgb\09$0,$1\09\0A", "=q,=*m,0,*m,~{memory},~{cc},~{dirflag},~{fpsr},~{flags}"(ptr elementtype(i8) %1, i8 1, ptr elementtype(i8) %1) #17, !srcloc !11
  %.not = icmp eq i8 %2, 0
  br i1 %.not, label %5, label %3

3:                                                ; preds = %0
  %4 = tail call i32 @s_lock(ptr noundef %1, ptr noundef nonnull @.str.6, i32 noundef 1048, ptr noundef nonnull @__func__.ReplicationSlotMarkDirty) #17
  br label %5

5:                                                ; preds = %0, %3
  %6 = load ptr, ptr @MyReplicationSlot, align 8
  %7 = getelementptr inbounds nuw i8, ptr %6, i64 8
  store i8 1, ptr %7, align 8
  %8 = getelementptr inbounds nuw i8, ptr %6, i64 9
  store i8 1, ptr %8, align 1
  tail call void asm sideeffect "", "~{memory},~{dirflag},~{fpsr},~{flags}"() #17, !srcloc !26
  store i8 0, ptr %1, align 8
  ret void
}